target datalayout = "e-m:e-p270:32:32-p271:32:32-p272:64:64-i64:64-i128:128-f80:128-n8:16:32:64-S128"
target triple = "x86_64-pc-linux-gnu"

%struct.FunctionCallInfoBaseData = type { ptr, ptr, ptr, i32, i8, i16, [0 x %struct.NullableDatum] }
%struct.NullableDatum = type { i64, i8 }
%struct.HeapTupleData = type { i32, %struct.ItemPointerData, i32, ptr }
%struct.ItemPointerData = type { %struct.BlockIdData, i16 }
%struct.BlockIdData = type { i16, i16 }

@.str.1 = private unnamed_addr constant [12 x i8] c"xlogfuncs.c\00", align 1
@.str.6 = private unnamed_addr constant [24 x i8] c"recovery is in progress\00", align 1
@.str.8 = private unnamed_addr constant [39 x i8] c"%s cannot be executed during recovery.\00", align 1
@.str.14 = private unnamed_addr constant [25 x i8] c"pg_walfile_name_offset()\00", align 1
@__func__.pg_walfile_name_offset = private unnamed_addr constant [23 x i8] c"pg_walfile_name_offset\00", align 1
@.str.15 = private unnamed_addr constant [10 x i8] c"file_name\00", align 1
@.str.16 = private unnamed_addr constant [12 x i8] c"file_offset\00", align 1
@wal_segment_size = external global i32, align 4
@.str.39 = private unnamed_addr constant [13 x i8] c"%08X%08X%08X\00", align 1

; Function Attrs: inlinehint nounwind uwtable
define internal i64 @DatumGetInt64(i64 noundef %0) #3 {
  %2 = alloca i64, align 8
  store i64 %0, ptr %2, align 8
  %3 = load i64, ptr %2, align 8
  ret i64 %3
}

; Function Attrs: inlinehint nounwind uwtable
define internal i64 @HeapTupleGetDatum(ptr noundef %0) #3 {
  %2 = alloca ptr, align 8
  store ptr %0, ptr %2, align 8
  %3 = load ptr, ptr %2, align 8
  %4 = getelementptr inbounds nuw %struct.HeapTupleData, ptr %3, i32 0, i32 3
  %5 = load ptr, ptr %4, align 8
  %6 = call i64 @HeapTupleHeaderGetDatum(ptr noundef %5)
  ret i64 %6
}

; Function Attrs: inlinehint nounwind uwtable
define internal i64 @UInt32GetDatum(i32 noundef %0) #3 {
  %2 = alloca i32, align 4
  store i32 %0, ptr %2, align 4
  %3 = load i32, ptr %2, align 4
  %4 = zext i32 %3 to i64
  ret i64 %4
}

; Function Attrs: inlinehint nounwind uwtable
define internal i64 @PointerGetDatum(ptr noundef %0) #3 {
  %2 = alloca ptr, align 8
  store ptr %0, ptr %2, align 8
  %3 = load ptr, ptr %2, align 8
  %4 = ptrtoint ptr %3 to i64
  ret i64 %4
}

; Function Attrs: inlinehint nounwind uwtable
define internal void @XLogFileName(ptr noundef %0, i32 noundef %1, i64 noundef %2, i32 noundef %3) #3 {
  %5 = alloca ptr, align 8
  %6 = alloca i32, align 4
  %7 = alloca i64, align 8
  %8 = alloca i32, align 4
  store ptr %0, ptr %5, align 8
  store i32 %1, ptr %6, align 4
  store i64 %2, ptr %7, align 8
  store i32 %3, ptr %8, align 4
  %9 = load ptr, ptr %5, align 8
  %10 = load i32, ptr %6, align 4
  %11 = load i64, ptr %7, align 8
  %12 = load i32, ptr %8, align 4
  %13 = sext i32 %12 to i64
  %14 = udiv i64 4294967296, %13
  %15 = udiv i64 %11, %14
  %16 = trunc i64 %15 to i32
  %17 = load i64, ptr %7, align 8
  %18 = load i32, ptr %8, align 4
  %19 = sext i32 %18 to i64
  %20 = udiv i64 4294967296, %19
  %21 = urem i64 %17, %20
  %22 = trunc i64 %21 to i32
  %23 = call i32 (ptr, i64, ptr, ...) @pg_snprintf(ptr noundef %9, i64 noundef 64, ptr noundef @.str.39, i32 noundef %10, i32 noundef %16, i32 noundef %22)
  ret void
}

; Function Attrs: inlinehint nounwind uwtable
define internal i64 @DatumGetLSN(i64 noundef %0) #3 {
  %2 = alloca i64, align 8
  store i64 %0, ptr %2, align 8
  %3 = load i64, ptr %2, align 8
  %4 = call i64 @DatumGetInt64(i64 noundef %3)
  ret i64 %4
}

; Function Attrs: nounwind uwtable
define dso_local i64 @pg_walfile_name_offset(ptr noundef %0) #0 {
  %2 = alloca ptr, align 8
  %3 = alloca i64, align 8
  %4 = alloca i32, align 4
  %5 = alloca i64, align 8
  %6 = alloca [64 x i8], align 16
  %7 = alloca [2 x i64], align 16
  %8 = alloca [2 x i8], align 1
  %9 = alloca ptr, align 8
  %10 = alloca ptr, align 8
  %11 = alloca i64, align 8
  store ptr %0, ptr %2, align 8
  call void @llvm.lifetime.start.p0(i64 8, ptr %3) #9
  call void @llvm.lifetime.start.p0(i64 4, ptr %4) #9
  call void @llvm.lifetime.start.p0(i64 8, ptr %5) #9
  %12 = load ptr, ptr %2, align 8
  %13 = getelementptr inbounds nuw %struct.FunctionCallInfoBaseData, ptr %12, i32 0, i32 6
  %14 = getelementptr inbounds [0 x %struct.NullableDatum], ptr %13, i64 0, i64 0
  %15 = getelementptr inbounds nuw %struct.NullableDatum, ptr %14, i32 0, i32 0
  %16 = load i64, ptr %15, align 8
  %17 = call i64 @DatumGetLSN(i64 noundef %16)
  store i64 %17, ptr %5, align 8
  call void @llvm.lifetime.start.p0(i64 64, ptr %6) #9
  call void @llvm.lifetime.start.p0(i64 16, ptr %7) #9
  call void @llvm.lifetime.start.p0(i64 2, ptr %8) #9
  call void @llvm.lifetime.start.p0(i64 8, ptr %9) #9
  call void @llvm.lifetime.start.p0(i64 8, ptr %10) #9
  call void @llvm.lifetime.start.p0(i64 8, ptr %11) #9
  %18 = call zeroext i1 @RecoveryInProgress()
  br i1 %18, label %19, label %32

19:                                               ; preds = %1
  br label %20

20:                                               ; preds = %19
  br i1 true, label %21, label %23

21:                                               ; preds = %20
  %22 = call zeroext i1 @errstart_cold(i32 noundef 21, ptr noundef null) #10
  br i1 %22, label %25, label %29

23:                                               ; preds = %20
  %24 = call zeroext i1 @errstart(i32 noundef 21, ptr noundef null)
  br i1 %24, label %25, label %29

25:                                               ; preds = %23, %21
  %26 = call i32 @errcode(i32 noundef 325)
  %27 = call i32 (ptr, ...) @errmsg(ptr noundef @.str.6)
  %28 = call i32 (ptr, ...) @errhint(ptr noundef @.str.8, ptr noundef @.str.14)
  call void @errfinish(ptr noundef @.str.1, i32 noundef 391, ptr noundef @__func__.pg_walfile_name_offset)
  br label %29

29:                                               ; preds = %25, %23, %21
  unreachable

30:                                               ; No predecessors!
  br label %31

31:                                               ; preds = %30
  br label %32

32:                                               ; preds = %31, %1
  %33 = call ptr @CreateTemplateTupleDesc(i32 noundef 2)
  store ptr %33, ptr %9, align 8
  %34 = load ptr, ptr %9, align 8
  call void @TupleDescInitEntry(ptr noundef %34, i16 noundef signext 1, ptr noundef @.str.15, i32 noundef 25, i32 noundef -1, i32 noundef 0)
  %35 = load ptr, ptr %9, align 8
  call void @TupleDescInitEntry(ptr noundef %35, i16 noundef signext 2, ptr noundef @.str.16, i32 noundef 23, i32 noundef -1, i32 noundef 0)
  %36 = load ptr, ptr %9, align 8
  %37 = call ptr @BlessTupleDesc(ptr noundef %36)
  store ptr %37, ptr %9, align 8
  %38 = load i64, ptr %5, align 8
  %39 = load i32, ptr @wal_segment_size, align 4
  %40 = sext i32 %39 to i64
  %41 = udiv i64 %38, %40
  store i64 %41, ptr %3, align 8
  %42 = getelementptr inbounds [64 x i8], ptr %6, i64 0, i64 0
  %43 = call i32 @GetWALInsertionTimeLine()
  %44 = load i64, ptr %3, align 8
  %45 = load i32, ptr @wal_segment_size, align 4
  call void @XLogFileName(ptr noundef %42, i32 noundef %43, i64 noundef %44, i32 noundef %45)
  %46 = getelementptr inbounds [64 x i8], ptr %6, i64 0, i64 0
  %47 = call ptr @cstring_to_text(ptr noundef %46)
  %48 = call i64 @PointerGetDatum(ptr noundef %47)
  %49 = getelementptr inbounds [2 x i64], ptr %7, i64 0, i64 0
  store i64 %48, ptr %49, align 16
  %50 = getelementptr inbounds [2 x i8], ptr %8, i64 0, i64 0
  store i8 0, ptr %50, align 1
  %51 = load i64, ptr %5, align 8
  %52 = load i32, ptr @wal_segment_size, align 4
  %53 = sub i32 %52, 1
  %54 = sext i32 %53 to i64
  %55 = and i64 %51, %54
  %56 = trunc i64 %55 to i32
  store i32 %56, ptr %4, align 4
  %57 = load i32, ptr %4, align 4
  %58 = call i64 @UInt32GetDatum(i32 noundef %57)
  %59 = getelementptr inbounds [2 x i64], ptr %7, i64 0, i64 1
  store i64 %58, ptr %59, align 8
  %60 = getelementptr inbounds [2 x i8], ptr %8, i64 0, i64 1
  store i8 0, ptr %60, align 1
  %61 = load ptr, ptr %9, align 8
  %62 = getelementptr inbounds [2 x i64], ptr %7, i64 0, i64 0
  %63 = getelementptr inbounds [2 x i8], ptr %8, i64 0, i64 0
  %64 = call ptr @heap_form_tuple(ptr noundef %61, ptr noundef %62, ptr noundef %63)
  store ptr %64, ptr %10, align 8
  %65 = load ptr, ptr %10, align 8
  %66 = call i64 @HeapTupleGetDatum(ptr noundef %65)
  store i64 %66, ptr %11, align 8
  %67 = load i64, ptr %11, align 8
  call void @llvm.lifetime.end.p0(i64 8, ptr %11) #9
  call void @llvm.lifetime.end.p0(i64 8, ptr %10) #9
  call void @llvm.lifetime.end.p0(i64 8, ptr %9) #9
  call void @llvm.lifetime.end.p0(i64 2, ptr %8) #9
  call void @llvm.lifetime.end.p0(i64 16, ptr %7) #9
  call void @llvm.lifetime.end.p0(i64 64, ptr %6) #9
  call void @llvm.lifetime.end.p0(i64 8, ptr %5) #9
  call void @llvm.lifetime.end.p0(i64 4, ptr %4) #9
  call void @llvm.lifetime.end.p0(i64 8, ptr %3) #9
  ret i64 %67
}