; Function Attrs: nounwind uwtable
define dso_local i64 @pg_walfile_name_offset(ptr noundef readonly captures(none) %0) local_unnamed_addr #0 {
  %2 = alloca [64 x i8], align 16
  %3 = alloca [2 x i64], align 16
  %4 = alloca [2 x i8], align 1
  %5 = getelementptr inbounds nuw i8, ptr %0, i64 32
  %6 = load i64, ptr %5, align 8
  call void @llvm.lifetime.start.p0(i64 64, ptr nonnull %2) #9
  call void @llvm.lifetime.start.p0(i64 16, ptr nonnull %3) #9
  call void @llvm.lifetime.start.p0(i64 2, ptr nonnull %4) #9
  %7 = tail call zeroext i1 @RecoveryInProgress() #9
  br i1 %7, label %8, label %13

8:                                                ; preds = %1
  %9 = tail call zeroext i1 @errstart_cold(i32 noundef 21, ptr noundef null) #10
  tail call void @llvm.assume(i1 %9)
  %10 = tail call i32 @errcode(i32 noundef 325) #9
  %11 = tail call i32 (ptr, ...) @errmsg(ptr noundef nonnull @.str.6) #9
  %12 = tail call i32 (ptr, ...) @errhint(ptr noundef nonnull @.str.8, ptr noundef nonnull @.str.14) #9
  tail call void @errfinish(ptr noundef nonnull @.str.1, i32 noundef 391, ptr noundef nonnull @__func__.pg_walfile_name_offset) #9
  unreachable

13:                                               ; preds = %1
  %14 = tail call ptr @CreateTemplateTupleDesc(i32 noundef 2) #9
  tail call void @TupleDescInitEntry(ptr noundef %14, i16 noundef signext 1, ptr noundef nonnull @.str.15, i32 noundef 25, i32 noundef -1, i32 noundef 0) #9
  tail call void @TupleDescInitEntry(ptr noundef %14, i16 noundef signext 2, ptr noundef nonnull @.str.16, i32 noundef 23, i32 noundef -1, i32 noundef 0) #9
  %15 = tail call ptr @BlessTupleDesc(ptr noundef %14) #9
  %16 = load i32, ptr @wal_segment_size, align 4
  %17 = sext i32 %16 to i64
  %18 = udiv i64 %6, %17
  %19 = tail call i32 @GetWALInsertionTimeLine() #9
  %20 = load i32, ptr @wal_segment_size, align 4
  %21 = sext i32 %20 to i64
  %22 = udiv i64 4294967296, %21
  %23 = udiv i64 %18, %22
  %24 = trunc i64 %23 to i32
  %25 = urem i64 %18, %22
  %26 = trunc nuw i64 %25 to i32
  %27 = call i32 (ptr, i64, ptr, ...) @pg_snprintf(ptr noundef nonnull %2, i64 noundef 64, ptr noundef nonnull @.str.39, i32 noundef %19, i32 noundef %24, i32 noundef %26) #9
  %28 = call ptr @cstring_to_text(ptr noundef nonnull %2) #9
  %29 = ptrtoint ptr %28 to i64
  store i64 %29, ptr %3, align 16
  store i8 0, ptr %4, align 1
  %30 = load i32, ptr @wal_segment_size, align 4
  %31 = add i32 %30, -1
  %32 = trunc i64 %6 to i32
  %33 = and i32 %31, %32
  %34 = zext i32 %33 to i64
  %35 = getelementptr inbounds nuw i8, ptr %3, i64 8
  store i64 %34, ptr %35, align 8
  %36 = getelementptr inbounds nuw i8, ptr %4, i64 1
  store i8 0, ptr %36, align 1
  %37 = call ptr @heap_form_tuple(ptr noundef %15, ptr noundef nonnull %3, ptr noundef nonnull %4) #9
  %38 = getelementptr i8, ptr %37, i64 16
  %.val = load ptr, ptr %38, align 8
  %39 = call i64 @HeapTupleHeaderGetDatum(ptr noundef %.val) #9
  call void @llvm.lifetime.end.p0(i64 2, ptr nonnull %4) #9
  call void @llvm.lifetime.end.p0(i64 16, ptr nonnull %3) #9
  call void @llvm.lifetime.end.p0(i64 64, ptr nonnull %2) #9
  ret i64 %39
}